target datalayout = "e-m:e-p270:32:32-p271:32:32-p272:64:64-i64:64-i128:128-f80:128-n8:16:32:64-S128"
target triple = "x86_64-pc-linux-gnu"

%struct.FT_ListRec_ = type { ptr, ptr }
%struct.FT_CharMapRec_ = type { ptr, i32, i16, i16 }
%struct.T1_FaceRec_ = type { %struct.FT_FaceRec_, %struct.T1_FontRec_, ptr, ptr, ptr, [2 x %struct.FT_CharMapRec_], [2 x ptr], ptr, i32, i32, i32, ptr, ptr }
%struct.FT_FaceRec_ = type { i64, i64, i64, i64, i64, ptr, ptr, i32, ptr, i32, ptr, %struct.FT_Generic_, %struct.FT_BBox_, i16, i16, i16, i16, i16, i16, i16, i16, ptr, ptr, ptr, ptr, ptr, ptr, %struct.FT_ListRec_, %struct.FT_Generic_, ptr, ptr }
%struct.FT_BBox_ = type { i64, i64, i64, i64 }
%struct.FT_Generic_ = type { ptr, ptr }
%struct.T1_FontRec_ = type { %struct.PS_FontInfoRec_, %struct.PS_FontExtraRec_, %struct.PS_PrivateRec_, ptr, i32, %struct.T1_EncodingRecRec_, ptr, ptr, ptr, i32, ptr, ptr, ptr, i32, ptr, ptr, ptr, i8, i8, %struct.FT_Matrix_, %struct.FT_Vector_, %struct.FT_BBox_, i64, i64 }
%struct.PS_FontInfoRec_ = type { ptr, ptr, ptr, ptr, ptr, i64, i8, i16, i16 }
%struct.PS_FontExtraRec_ = type { i16 }
%struct.PS_PrivateRec_ = type { i32, i32, i8, i8, i8, i8, [14 x i16], [10 x i16], [14 x i16], [10 x i16], i64, i32, i32, [1 x i16], [1 x i16], i8, i8, i8, i8, [13 x i16], [13 x i16], i64, i64, i64, [2 x i16] }
%struct.T1_EncodingRecRec_ = type { i32, i32, i32, ptr, ptr }
%struct.FT_Matrix_ = type { i64, i64, i64, i64 }
%struct.FT_Vector_ = type { i64, i64 }
%struct.T1_Loader_ = type { %struct.T1_ParserRec_, i32, %struct.PS_TableRec_, i32, %struct.PS_TableRec_, %struct.PS_TableRec_, %struct.PS_TableRec_, i32, %struct.PS_TableRec_, ptr, i8, i32 }
%struct.T1_ParserRec_ = type { %struct.PS_ParserRec_, ptr, ptr, i64, ptr, i64, i8, i8, i8 }
%struct.PS_ParserRec_ = type { ptr, ptr, ptr, i32, ptr, %struct.PS_Parser_FuncsRec_ }
%struct.PS_Parser_FuncsRec_ = type { ptr, ptr, ptr, ptr, ptr, ptr, ptr, ptr, ptr, ptr, ptr, ptr, ptr }
%struct.PS_TableRec_ = type { ptr, i64, i64, i64, i32, ptr, ptr, ptr, %struct.PS_Table_FuncsRec_ }
%struct.PS_Table_FuncsRec_ = type { ptr, ptr, ptr, ptr }

; Function Attrs: nounwind uwtable
define internal void @t1_parse_font_matrix(ptr noundef %0, ptr noundef %1) #0 {
  %3 = alloca ptr, align 8
  %4 = alloca ptr, align 8
  %5 = alloca ptr, align 8
  %6 = alloca ptr, align 8
  %7 = alloca ptr, align 8
  %8 = alloca ptr, align 8
  %9 = alloca ptr, align 8
  %10 = alloca [6 x i64], align 16
  %11 = alloca i64, align 8
  %12 = alloca i32, align 4
  store ptr %0, ptr %3, align 8
  store ptr %1, ptr %4, align 8
  %13 = load ptr, ptr %3, align 8
  store ptr %13, ptr %5, align 8
  %14 = load ptr, ptr %4, align 8
  store ptr %14, ptr %6, align 8
  %15 = load ptr, ptr %6, align 8
  %16 = getelementptr inbounds %struct.T1_Loader_, ptr %15, i32 0, i32 0
  store ptr %16, ptr %7, align 8
  %17 = load ptr, ptr %5, align 8
  %18 = getelementptr inbounds %struct.T1_FaceRec_, ptr %17, i32 0, i32 1
  %19 = getelementptr inbounds %struct.T1_FontRec_, ptr %18, i32 0, i32 19
  store ptr %19, ptr %8, align 8
  %20 = load ptr, ptr %5, align 8
  %21 = getelementptr inbounds %struct.T1_FaceRec_, ptr %20, i32 0, i32 1
  %22 = getelementptr inbounds %struct.T1_FontRec_, ptr %21, i32 0, i32 20
  store ptr %22, ptr %9, align 8
  %23 = load ptr, ptr %7, align 8
  %24 = getelementptr inbounds %struct.T1_ParserRec_, ptr %23, i32 0, i32 0
  %25 = getelementptr inbounds %struct.PS_ParserRec_, ptr %24, i32 0, i32 5
  %26 = getelementptr inbounds %struct.PS_Parser_FuncsRec_, ptr %25, i32 0, i32 8
  %27 = load ptr, ptr %26, align 8
  %28 = load ptr, ptr %7, align 8
  %29 = getelementptr inbounds %struct.T1_ParserRec_, ptr %28, i32 0, i32 0
  %30 = getelementptr inbounds [6 x i64], ptr %10, i64 0, i64 0
  %31 = call i32 %27(ptr noundef %29, i32 noundef 6, ptr noundef %30, i32 noundef 3)
  store i32 %31, ptr %12, align 4
  %32 = load i32, ptr %12, align 4
  %33 = icmp slt i32 %32, 6
  br i1 %33, label %34, label %38

34:                                               ; preds = %2
  %35 = load ptr, ptr %7, align 8
  %36 = getelementptr inbounds %struct.T1_ParserRec_, ptr %35, i32 0, i32 0
  %37 = getelementptr inbounds %struct.PS_ParserRec_, ptr %36, i32 0, i32 3
  store i32 3, ptr %37, align 8
  br label %137

38:                                               ; preds = %2
  br label %39

39:                                               ; preds = %38
  br label %40

40:                                               ; preds = %39
  %41 = getelementptr inbounds [6 x i64], ptr %10, i64 0, i64 3
  %42 = load i64, ptr %41, align 8
  %43 = icmp slt i64 %42, 0
  br i1 %43, label %44, label %48

44:                                               ; preds = %40
  %45 = getelementptr inbounds [6 x i64], ptr %10, i64 0, i64 3
  %46 = load i64, ptr %45, align 8
  %47 = sub nsw i64 0, %46
  br label %51

48:                                               ; preds = %40
  %49 = getelementptr inbounds [6 x i64], ptr %10, i64 0, i64 3
  %50 = load i64, ptr %49, align 8
  br label %51

51:                                               ; preds = %48, %44
  %52 = phi i64 [ %47, %44 ], [ %50, %48 ]
  store i64 %52, ptr %11, align 8
  %53 = load i64, ptr %11, align 8
  %54 = icmp eq i64 %53, 0
  br i1 %54, label %55, label %61

55:                                               ; preds = %51
  br label %56

56:                                               ; preds = %55
  br label %57

57:                                               ; preds = %56
  %58 = load ptr, ptr %7, align 8
  %59 = getelementptr inbounds %struct.T1_ParserRec_, ptr %58, i32 0, i32 0
  %60 = getelementptr inbounds %struct.PS_ParserRec_, ptr %59, i32 0, i32 3
  store i32 3, ptr %60, align 8
  br label %137

61:                                               ; preds = %51
  %62 = load i64, ptr %11, align 8
  %63 = icmp ne i64 %62, 65536
  br i1 %63, label %64, label %100

64:                                               ; preds = %61
  %65 = load i64, ptr %11, align 8
  %66 = call i64 @FT_DivFix(i64 noundef 1000, i64 noundef %65)
  %67 = trunc i64 %66 to i16
  %68 = load ptr, ptr %3, align 8
  %69 = getelementptr inbounds %struct.FT_FaceRec_, ptr %68, i32 0, i32 13
  store i16 %67, ptr %69, align 8
  %70 = getelementptr inbounds [6 x i64], ptr %10, i64 0, i64 0
  %71 = load i64, ptr %70, align 16
  %72 = load i64, ptr %11, align 8
  %73 = call i64 @FT_DivFix(i64 noundef %71, i64 noundef %72)
  %74 = getelementptr inbounds [6 x i64], ptr %10, i64 0, i64 0
  store i64 %73, ptr %74, align 16
  %75 = getelementptr inbounds [6 x i64], ptr %10, i64 0, i64 1
  %76 = load i64, ptr %75, align 8
  %77 = load i64, ptr %11, align 8
  %78 = call i64 @FT_DivFix(i64 noundef %76, i64 noundef %77)
  %79 = getelementptr inbounds [6 x i64], ptr %10, i64 0, i64 1
  store i64 %78, ptr %79, align 8
  %80 = getelementptr inbounds [6 x i64], ptr %10, i64 0, i64 2
  %81 = load i64, ptr %80, align 16
  %82 = load i64, ptr %11, align 8
  %83 = call i64 @FT_DivFix(i64 noundef %81, i64 noundef %82)
  %84 = getelementptr inbounds [6 x i64], ptr %10, i64 0, i64 2
  store i64 %83, ptr %84, align 16
  %85 = getelementptr inbounds [6 x i64], ptr %10, i64 0, i64 4
  %86 = load i64, ptr %85, align 16
  %87 = load i64, ptr %11, align 8
  %88 = call i64 @FT_DivFix(i64 noundef %86, i64 noundef %87)
  %89 = getelementptr inbounds [6 x i64], ptr %10, i64 0, i64 4
  store i64 %88, ptr %89, align 16
  %90 = getelementptr inbounds [6 x i64], ptr %10, i64 0, i64 5
  %91 = load i64, ptr %90, align 8
  %92 = load i64, ptr %11, align 8
  %93 = call i64 @FT_DivFix(i64 noundef %91, i64 noundef %92)
  %94 = getelementptr inbounds [6 x i64], ptr %10, i64 0, i64 5
  store i64 %93, ptr %94, align 8
  %95 = getelementptr inbounds [6 x i64], ptr %10, i64 0, i64 3
  %96 = load i64, ptr %95, align 8
  %97 = icmp slt i64 %96, 0
  %98 = select i1 %97, i64 -65536, i64 65536
  %99 = getelementptr inbounds [6 x i64], ptr %10, i64 0, i64 3
  store i64 %98, ptr %99, align 8
  br label %100

100:                                              ; preds = %64, %61
  %101 = getelementptr inbounds [6 x i64], ptr %10, i64 0, i64 0
  %102 = load i64, ptr %101, align 16
  %103 = load ptr, ptr %8, align 8
  %104 = getelementptr inbounds %struct.FT_Matrix_, ptr %103, i32 0, i32 0
  store i64 %102, ptr %104, align 8
  %105 = getelementptr inbounds [6 x i64], ptr %10, i64 0, i64 1
  %106 = load i64, ptr %105, align 8
  %107 = load ptr, ptr %8, align 8
  %108 = getelementptr inbounds %struct.FT_Matrix_, ptr %107, i32 0, i32 2
  store i64 %106, ptr %108, align 8
  %109 = getelementptr inbounds [6 x i64], ptr %10, i64 0, i64 2
  %110 = load i64, ptr %109, align 16
  %111 = load ptr, ptr %8, align 8
  %112 = getelementptr inbounds %struct.FT_Matrix_, ptr %111, i32 0, i32 1
  store i64 %110, ptr %112, align 8
  %113 = getelementptr inbounds [6 x i64], ptr %10, i64 0, i64 3
  %114 = load i64, ptr %113, align 8
  %115 = load ptr, ptr %8, align 8
  %116 = getelementptr inbounds %struct.FT_Matrix_, ptr %115, i32 0, i32 3
  store i64 %114, ptr %116, align 8
  %117 = load ptr, ptr %8, align 8
  %118 = call zeroext i8 @FT_Matrix_Check(ptr noundef %117)
  %119 = icmp ne i8 %118, 0
  br i1 %119, label %126, label %120

120:                                              ; preds = %100
  br label %121

121:                                              ; preds = %120
  br label %122

122:                                              ; preds = %121
  %123 = load ptr, ptr %7, align 8
  %124 = getelementptr inbounds %struct.T1_ParserRec_, ptr %123, i32 0, i32 0
  %125 = getelementptr inbounds %struct.PS_ParserRec_, ptr %124, i32 0, i32 3
  store i32 3, ptr %125, align 8
  br label %137

126:                                              ; preds = %100
  %127 = getelementptr inbounds [6 x i64], ptr %10, i64 0, i64 4
  %128 = load i64, ptr %127, align 16
  %129 = ashr i64 %128, 16
  %130 = load ptr, ptr %9, align 8
  %131 = getelementptr inbounds %struct.FT_Vector_, ptr %130, i32 0, i32 0
  store i64 %129, ptr %131, align 8
  %132 = getelementptr inbounds [6 x i64], ptr %10, i64 0, i64 5
  %133 = load i64, ptr %132, align 8
  %134 = ashr i64 %133, 16
  %135 = load ptr, ptr %9, align 8
  %136 = getelementptr inbounds %struct.FT_Vector_, ptr %135, i32 0, i32 1
  store i64 %134, ptr %136, align 8
  br label %137

137:                                              ; preds = %126, %122, %57, %34
  ret void
}