; Function Attrs: nounwind uwtable
define internal void @t1_parse_font_matrix(ptr noundef %0, ptr noundef %1) #2 {
  %3 = alloca [6 x i64], align 16
  %4 = getelementptr inbounds i8, ptr %0, i64 680
  %5 = getelementptr inbounds i8, ptr %0, i64 712
  %6 = getelementptr inbounds i8, ptr %1, i64 104
  %7 = load ptr, ptr %6, align 8
  %8 = call i32 %7(ptr noundef %1, i32 noundef 6, ptr noundef nonnull %3, i32 noundef 3) #16
  %9 = icmp slt i32 %8, 6
  br i1 %9, label %10, label %12

10:                                               ; preds = %2
  %11 = getelementptr inbounds i8, ptr %1, i64 24
  store i32 3, ptr %11, align 8
  br label %56

12:                                               ; preds = %2
  %13 = getelementptr inbounds i8, ptr %3, i64 24
  %14 = load i64, ptr %13, align 8
  %15 = call i64 @llvm.abs.i64(i64 %14, i1 true)
  %16 = icmp eq i64 %14, 0
  br i1 %16, label %17, label %19

17:                                               ; preds = %12
  %18 = getelementptr inbounds i8, ptr %1, i64 24
  store i32 3, ptr %18, align 8
  br label %56

19:                                               ; preds = %12
  %.not = icmp eq i64 %15, 65536
  br i1 %.not, label %41, label %20

20:                                               ; preds = %19
  %21 = call i64 @FT_DivFix(i64 noundef 1000, i64 noundef %15) #16
  %22 = trunc i64 %21 to i16
  %23 = getelementptr inbounds i8, ptr %0, i64 136
  store i16 %22, ptr %23, align 8
  %24 = load i64, ptr %3, align 16
  %25 = call i64 @FT_DivFix(i64 noundef %24, i64 noundef %15) #16
  store i64 %25, ptr %3, align 16
  %26 = getelementptr inbounds i8, ptr %3, i64 8
  %27 = load i64, ptr %26, align 8
  %28 = call i64 @FT_DivFix(i64 noundef %27, i64 noundef %15) #16
  store i64 %28, ptr %26, align 8
  %29 = getelementptr inbounds i8, ptr %3, i64 16
  %30 = load i64, ptr %29, align 16
  %31 = call i64 @FT_DivFix(i64 noundef %30, i64 noundef %15) #16
  store i64 %31, ptr %29, align 16
  %32 = getelementptr inbounds i8, ptr %3, i64 32
  %33 = load i64, ptr %32, align 16
  %34 = call i64 @FT_DivFix(i64 noundef %33, i64 noundef %15) #16
  store i64 %34, ptr %32, align 16
  %35 = getelementptr inbounds i8, ptr %3, i64 40
  %36 = load i64, ptr %35, align 8
  %37 = call i64 @FT_DivFix(i64 noundef %36, i64 noundef %15) #16
  store i64 %37, ptr %35, align 8
  %38 = load i64, ptr %13, align 8
  %39 = icmp slt i64 %38, 0
  %40 = select i1 %39, i64 -65536, i64 65536
  store i64 %40, ptr %13, align 8
  br label %41

41:                                               ; preds = %20, %19
  %42 = phi i64 [ %40, %20 ], [ %14, %19 ]
  %43 = load i64, ptr %3, align 16
  store i64 %43, ptr %4, align 8
  %44 = getelementptr inbounds i8, ptr %3, i64 8
  %45 = getelementptr inbounds i8, ptr %0, i64 688
  %46 = load <2 x i64>, ptr %44, align 8
  %47 = shufflevector <2 x i64> %46, <2 x i64> poison, <2 x i32> <i32 1, i32 0>
  store <2 x i64> %47, ptr %45, align 8
  %48 = getelementptr inbounds i8, ptr %0, i64 704
  store i64 %42, ptr %48, align 8
  %49 = call zeroext i8 @FT_Matrix_Check(ptr noundef nonnull %4) #16
  %.not26 = icmp eq i8 %49, 0
  br i1 %.not26, label %50, label %52

50:                                               ; preds = %41
  %51 = getelementptr inbounds i8, ptr %1, i64 24
  store i32 3, ptr %51, align 8
  br label %56

52:                                               ; preds = %41
  %53 = getelementptr inbounds i8, ptr %3, i64 32
  %54 = load <2 x i64>, ptr %53, align 16
  %55 = ashr <2 x i64> %54, <i64 16, i64 16>
  store <2 x i64> %55, ptr %5, align 8
  br label %56

56:                                               ; preds = %52, %50, %17, %10
  ret void
}